target datalayout = "e-m:e-p270:32:32-p271:32:32-p272:64:64-i64:64-i128:128-f80:128-n8:16:32:64-S128"
target triple = "x86_64-pc-linux-gnu"

%struct._ir_insn = type { %struct.anon, %union.anon.6 }
%struct.anon = type { %union.anon.0, %union.anon.5 }
%union.anon.0 = type { i32 }
%union.anon.5 = type { i32 }
%union.anon.6 = type { %union._ir_val }
%union._ir_val = type { double }
%struct._ir_ctx = type { ptr, i32, i32, i32, i32, i32, i32, i32, i32, i32, i32, %struct._ir_insn, ptr, ptr, ptr, i32, i32, i32, ptr, ptr, ptr, ptr, ptr, i32, i32, i64, i32, i32, i32, i64, i32, i32, i32, i32, ptr, ptr, ptr, ptr, ptr, ptr, %union.anon.14, ptr, i32, i32, i32, i64, i32, i32, i32, ptr, ptr, ptr, ptr, %struct._ir_strtab, [61 x i32], [14 x i32] }
%union.anon.14 = type { ptr }
%struct._ir_strtab = type { ptr, i32, i32, i32, i32, ptr, i32, i32 }

; Function Attrs: nounwind uwtable
define internal signext i8 @ir_get_fused_reg(ptr noundef %0, i32 noundef %1, i32 noundef %2) #0 {
  %4 = alloca i8, align 1
  %5 = alloca ptr, align 8
  %6 = alloca i32, align 4
  %7 = alloca i32, align 4
  %8 = alloca [10 x i8], align 1
  %9 = alloca i32, align 4
  store ptr %0, ptr %5, align 8
  store i32 %1, ptr %6, align 4
  store i32 %2, ptr %7, align 4
  %10 = load ptr, ptr %5, align 8
  %11 = getelementptr inbounds %struct._ir_ctx, ptr %10, i32 0, i32 38
  %12 = load ptr, ptr %11, align 8
  %13 = icmp ne ptr %12, null
  br i1 %13, label %14, label %29

14:                                               ; preds = %3
  %15 = getelementptr inbounds [10 x i8], ptr %8, i64 0, i64 0
  call void @llvm.memcpy.p0.p0.i64(ptr align 1 %15, ptr align 4 %6, i64 4, i1 false)
  %16 = getelementptr inbounds [10 x i8], ptr %8, i64 0, i64 0
  %17 = getelementptr inbounds i8, ptr %16, i64 4
  call void @llvm.memcpy.p0.p0.i64(ptr align 1 %17, ptr align 4 %7, i64 4, i1 false)
  %18 = load ptr, ptr %5, align 8
  %19 = getelementptr inbounds %struct._ir_ctx, ptr %18, i32 0, i32 38
  %20 = load ptr, ptr %19, align 8
  %21 = getelementptr inbounds [10 x i8], ptr %8, i64 0, i64 0
  %22 = call i32 @ir_strtab_find(ptr noundef %20, ptr noundef %21, i32 noundef 8)
  store i32 %22, ptr %9, align 4
  %23 = load i32, ptr %9, align 4
  %24 = icmp ne i32 %23, 0
  br i1 %24, label %25, label %28

25:                                               ; preds = %14
  %26 = load i32, ptr %9, align 4
  %27 = trunc i32 %26 to i8
  store i8 %27, ptr %4, align 1
  br label %37

28:                                               ; preds = %14
  br label %29

29:                                               ; preds = %28, %3
  %30 = load ptr, ptr %5, align 8
  %31 = getelementptr inbounds %struct._ir_ctx, ptr %30, i32 0, i32 37
  %32 = load ptr, ptr %31, align 8
  %33 = load i32, ptr %7, align 4
  %34 = sext i32 %33 to i64
  %35 = getelementptr inbounds i8, ptr %32, i64 %34
  %36 = load i8, ptr %35, align 1
  store i8 %36, ptr %4, align 1
  br label %37

37:                                               ; preds = %29, %25
  %38 = load i8, ptr %4, align 1
  ret i8 %38
}

; Function Attrs: nounwind uwtable
define internal i64 @ir_fuse_load(ptr noundef %0, i32 noundef %1, i32 noundef %2) #0 {
  %4 = alloca ptr, align 8
  %5 = alloca i32, align 4
  %6 = alloca i32, align 4
  %7 = alloca ptr, align 8
  %8 = alloca i8, align 1
  store ptr %0, ptr %4, align 8
  store i32 %1, ptr %5, align 4
  store i32 %2, ptr %6, align 4
  %9 = load ptr, ptr %4, align 8
  %10 = getelementptr inbounds %struct._ir_ctx, ptr %9, i32 0, i32 0
  %11 = load ptr, ptr %10, align 8
  %12 = load i32, ptr %6, align 4
  %13 = sext i32 %12 to i64
  %14 = getelementptr inbounds %struct._ir_insn, ptr %11, i64 %13
  store ptr %14, ptr %7, align 8
  %15 = load ptr, ptr %4, align 8
  %16 = getelementptr inbounds %struct._ir_ctx, ptr %15, i32 0, i32 21
  %17 = load ptr, ptr %16, align 8
  %18 = load i32, ptr %6, align 4
  %19 = sext i32 %18 to i64
  %20 = getelementptr inbounds i32, ptr %17, i64 %19
  %21 = load i32, ptr %20, align 4
  %22 = and i32 %21, 268435456
  %23 = icmp ne i32 %22, 0
  %24 = xor i1 %23, true
  %25 = xor i1 %24, true
  %26 = zext i1 %25 to i32
  %27 = sext i32 %26 to i64
  %28 = icmp ne i64 %27, 0
  br i1 %28, label %29, label %38

29:                                               ; preds = %3
  %30 = load ptr, ptr %4, align 8
  %31 = load i32, ptr %5, align 4
  %32 = load i32, ptr %6, align 4
  %33 = sext i32 %32 to i64
  %34 = mul i64 %33, 4
  %35 = add i64 %34, 2
  %36 = trunc i64 %35 to i32
  %37 = call signext i8 @ir_get_fused_reg(ptr noundef %30, i32 noundef %31, i32 noundef %36)
  store i8 %37, ptr %8, align 1
  br label %47

38:                                               ; preds = %3
  %39 = load ptr, ptr %4, align 8
  %40 = getelementptr inbounds %struct._ir_ctx, ptr %39, i32 0, i32 37
  %41 = load ptr, ptr %40, align 8
  %42 = load i32, ptr %6, align 4
  %43 = sext i32 %42 to i64
  %44 = getelementptr inbounds [4 x i8], ptr %41, i64 %43
  %45 = getelementptr inbounds [4 x i8], ptr %44, i64 0, i64 2
  %46 = load i8, ptr %45, align 1
  store i8 %46, ptr %8, align 1
  br label %47

47:                                               ; preds = %38, %29
  %48 = load ptr, ptr %4, align 8
  %49 = load i32, ptr %5, align 4
  %50 = load i32, ptr %6, align 4
  %51 = load ptr, ptr %7, align 8
  %52 = load i8, ptr %8, align 1
  %53 = call i64 @ir_fuse_mem(ptr noundef %48, i32 noundef %49, i32 noundef %50, ptr noundef %51, i8 noundef signext %52)
  ret i64 %53
}