; Function Attrs: nounwind uwtable
define internal fastcc i64 @ir_fuse_load(ptr noundef %0, i32 noundef %1, i32 noundef %2) unnamed_addr #1 {
  %4 = alloca [10 x i8], align 4
  %5 = load ptr, ptr %0, align 8
  %6 = sext i32 %2 to i64
  %7 = getelementptr inbounds i8, ptr %0, i64 128
  %8 = load ptr, ptr %7, align 8
  %9 = getelementptr inbounds i32, ptr %8, i64 %6
  %10 = load i32, ptr %9, align 4
  %11 = and i32 %10, 268435456
  %.not = icmp eq i32 %11, 0
  br i1 %.not, label %28, label %12

12:                                               ; preds = %3
  %13 = shl i32 %2, 2
  %14 = or disjoint i32 %13, 2
  call void @llvm.lifetime.start.p0(i64 10, ptr nonnull %4)
  %15 = getelementptr inbounds i8, ptr %0, i64 232
  %16 = load ptr, ptr %15, align 8
  %.not.i = icmp eq ptr %16, null
  br i1 %.not.i, label %22, label %17

17:                                               ; preds = %12
  store i32 %1, ptr %4, align 4
  %18 = getelementptr inbounds i8, ptr %4, i64 4
  store i32 %14, ptr %18, align 4
  %19 = call i32 @ir_strtab_find(ptr noundef nonnull %16, ptr noundef nonnull %4, i32 noundef 8) #22
  %.not8.i = icmp eq i32 %19, 0
  br i1 %.not8.i, label %22, label %20

20:                                               ; preds = %17
  %21 = trunc i32 %19 to i8
  br label %ir_get_fused_reg.exit

22:                                               ; preds = %17, %12
  %23 = getelementptr inbounds i8, ptr %0, i64 224
  %24 = load ptr, ptr %23, align 8
  %25 = sext i32 %14 to i64
  %26 = getelementptr inbounds i8, ptr %24, i64 %25
  %27 = load i8, ptr %26, align 1
  br label %ir_get_fused_reg.exit

ir_get_fused_reg.exit:                            ; preds = %20, %22
  %.0.i = phi i8 [ %21, %20 ], [ %27, %22 ]
  call void @llvm.lifetime.end.p0(i64 10, ptr nonnull %4)
  br label %33

28:                                               ; preds = %3
  %29 = getelementptr inbounds i8, ptr %0, i64 224
  %30 = load ptr, ptr %29, align 8
  %31 = getelementptr inbounds [4 x i8], ptr %30, i64 %6, i64 2
  %32 = load i8, ptr %31, align 1
  br label %33

33:                                               ; preds = %28, %ir_get_fused_reg.exit
  %.0 = phi i8 [ %.0.i, %ir_get_fused_reg.exit ], [ %32, %28 ]
  %34 = getelementptr inbounds %struct._ir_insn, ptr %5, i64 %6
  %35 = call fastcc i64 @ir_fuse_mem(ptr noundef nonnull %0, i32 noundef %1, ptr noundef %34, i8 noundef signext %.0)
  ret i64 %35
}